target datalayout = "e-m:e-p270:32:32-p271:32:32-p272:64:64-i64:64-i128:128-f80:128-n8:16:32:64-S128"
target triple = "x86_64-unknown-linux-gnu"

%"class.std::__cxx11::basic_string" = type { %"struct.std::__cxx11::basic_string<char>::_Alloc_hider", i64, %union.anon }
%"struct.std::__cxx11::basic_string<char>::_Alloc_hider" = type { ptr }
%union.anon = type { i64, [8 x i8] }
%"class.rocksdb::PosixMmapFile" = type <{ %"class.rocksdb::FSWritableFile.base", [7 x i8], %"class.std::__cxx11::basic_string", i32, [4 x i8], i64, i64, ptr, ptr, ptr, ptr, i64, i8, i8, [6 x i8] }>
%"class.rocksdb::FSWritableFile.base" = type <{ ptr, i64, i64, i32, i32, i8 }>

; Function Attrs: mustprogress nounwind uwtable
define noundef i64 @_ZN7rocksdb13PosixMmapFile11GetFileSizeERKNS_9IOOptionsEPNS_14IODebugContextE(ptr noundef nonnull align 8 dereferenceable(138) %this, ptr noundef nonnull align 8 dereferenceable(83) %0, ptr noundef %1) unnamed_addr #3 align 2 {
entry:
  %this.addr = alloca ptr, align 8
  %.addr = alloca ptr, align 8
  %.addr1 = alloca ptr, align 8
  %used = alloca i64, align 8
  store ptr %this, ptr %this.addr, align 8
  store ptr %0, ptr %.addr, align 8
  store ptr %1, ptr %.addr1, align 8
  %this2 = load ptr, ptr %this.addr, align 8
  %dst_ = getelementptr inbounds %"class.rocksdb::PosixMmapFile", ptr %this2, i32 0, i32 9
  %2 = load ptr, ptr %dst_, align 8
  %base_ = getelementptr inbounds %"class.rocksdb::PosixMmapFile", ptr %this2, i32 0, i32 7
  %3 = load ptr, ptr %base_, align 8
  %sub.ptr.lhs.cast = ptrtoint ptr %2 to i64
  %sub.ptr.rhs.cast = ptrtoint ptr %3 to i64
  %sub.ptr.sub = sub i64 %sub.ptr.lhs.cast, %sub.ptr.rhs.cast
  store i64 %sub.ptr.sub, ptr %used, align 8
  %file_offset_ = getelementptr inbounds %"class.rocksdb::PosixMmapFile", ptr %this2, i32 0, i32 11
  %4 = load i64, ptr %file_offset_, align 8
  %5 = load i64, ptr %used, align 8
  %add = add i64 %4, %5
  ret i64 %add
}