; Function Attrs: mustprogress nofree norecurse nosync nounwind willreturn memory(argmem: read) uwtable
define noundef i64 @_ZN7rocksdb13PosixMmapFile11GetFileSizeERKNS_9IOOptionsEPNS_14IODebugContextE(ptr nocapture noundef nonnull readonly align 8 dereferenceable(138) %this, ptr nocapture nonnull readnone align 8 %0, ptr nocapture readnone %1) unnamed_addr #15 align 2 {
entry:
  %dst_ = getelementptr inbounds i8, ptr %this, i64 112
  %2 = load ptr, ptr %dst_, align 8
  %base_ = getelementptr inbounds i8, ptr %this, i64 96
  %3 = load ptr, ptr %base_, align 8
  %sub.ptr.lhs.cast = ptrtoint ptr %2 to i64
  %sub.ptr.rhs.cast = ptrtoint ptr %3 to i64
  %sub.ptr.sub = sub i64 %sub.ptr.lhs.cast, %sub.ptr.rhs.cast
  %file_offset_ = getelementptr inbounds i8, ptr %this, i64 128
  %4 = load i64, ptr %file_offset_, align 8
  %add = add i64 %sub.ptr.sub, %4
  ret i64 %add
}